; Function Attrs: mustprogress uwtable
define internal void @"_ZNSt17_Function_handlerIFvRN3nix4SinkEEZNS0_5Store14addToStoreSlowESt17basic_string_viewIcSt11char_traitsIcEERNS0_14SourceAccessorERKNS0_9CanonPathENS0_20ContentAddressMethodENS0_13HashAlgorithmERKSt3setINS0_9StorePathESt4lessISH_ESaISH_EESt8optionalINS0_4HashEEE3$_0E9_M_invokeERKSt9_Any_dataS2_"(ptr nocapture noundef nonnull readonly align 8 dereferenceable(16) %0, ptr noundef nonnull align 8 dereferenceable(8) %1) #5 align 2 {
  %.val = load ptr, ptr %0, align 8
  %3 = getelementptr inbounds i8, ptr %0, i64 8
  %.val2 = load ptr, ptr %3, align 8
  %4 = load ptr, ptr %.val, align 8
  %5 = getelementptr inbounds i8, ptr %4, i64 64
  %6 = load ptr, ptr %5, align 8
  tail call void %6(ptr noundef nonnull align 8 dereferenceable(80) %.val, ptr noundef nonnull align 8 dereferenceable(32) %.val2, ptr noundef nonnull align 8 dereferenceable(8) %1, ptr noundef nonnull align 8 dereferenceable(32) @_ZN3nix17defaultPathFilterB5cxx11E)
  ret void
}